target datalayout = "e-m:e-p270:32:32-p271:32:32-p272:64:64-i64:64-i128:128-f80:128-n8:16:32:64-S128"
target triple = "x86_64-unknown-linux-gnu"

%"class.testing::internal::TestFactoryBase" = type { ptr }
%"class.testing::internal::ParameterizedTestFactory.544" = type <{ %"class.testing::internal::TestFactoryBase", i32, [4 x i8] }>

@_ZN7testing18WithParamInterfaceIiE10parameter_E = linkonce_odr dso_local global ptr null, comdat, align 8
@_ZTVN7testing18WithParamInterfaceIiEE = linkonce_odr dso_local unnamed_addr constant { [4 x ptr] } { [4 x ptr] [ptr null, ptr @_ZTIN7testing18WithParamInterfaceIiEE, ptr @_ZN7testing18WithParamInterfaceIiED2Ev, ptr @_ZN7testing18WithParamInterfaceIiED0Ev] }, comdat, align 8

; Function Attrs: mustprogress nounwind uwtable
define linkonce_odr dso_local void @_ZN7testing18WithParamInterfaceIiEC2Ev(ptr noundef nonnull align 8 dereferenceable(8) %this) unnamed_addr #7 comdat align 2 {
entry:
  %this.addr = alloca ptr, align 8
  store ptr %this, ptr %this.addr, align 8
  %this1 = load ptr, ptr %this.addr, align 8
  store ptr getelementptr inbounds ({ [4 x ptr] }, ptr @_ZTVN7testing18WithParamInterfaceIiEE, i32 0, i32 0, i32 2), ptr %this1, align 8
  ret void
}

; Function Attrs: mustprogress uwtable
define linkonce_odr dso_local void @_ZN7testing13TestWithParamIiEC2Ev(ptr noundef nonnull align 8 dereferenceable(24) %this) unnamed_addr #4 comdat align 2 {
entry:
  %this.addr = alloca ptr, align 8
  store ptr %this, ptr %this.addr, align 8
  %this1 = load ptr, ptr %this.addr, align 8
  call void @_ZN7testing4TestC2Ev(ptr noundef nonnull align 8 dereferenceable(16) %this1)
  %0 = getelementptr inbounds i8, ptr %this1, i64 16
  call void @_ZN7testing18WithParamInterfaceIiEC2Ev(ptr noundef nonnull align 8 dereferenceable(8) %0) #3
  store ptr getelementptr inbounds ({ [8 x ptr], [4 x ptr] }, ptr @_ZTVN7testing13TestWithParamIiEE, i32 0, i32 0, i32 2), ptr %this1, align 8
  %add.ptr = getelementptr inbounds i8, ptr %this1, i64 16
  store ptr getelementptr inbounds ({ [8 x ptr], [4 x ptr] }, ptr @_ZTVN7testing13TestWithParamIiEE, i32 0, i32 1, i32 2), ptr %add.ptr, align 8
  ret void
}

; Function Attrs: mustprogress uwtable
define internal void @_ZN12_GLOBAL__N_168UnparseFlagToOtherIntegerTest_ReturnsExpectedValueAndRoundTrips_TestC2Ev(ptr noundef nonnull align 8 dereferenceable(24) %this) unnamed_addr #4 align 2 {
entry:
  %this.addr = alloca ptr, align 8
  store ptr %this, ptr %this.addr, align 8
  %this1 = load ptr, ptr %this.addr, align 8
  call void @_ZN7testing13TestWithParamIiEC2Ev(ptr noundef nonnull align 8 dereferenceable(24) %this1)
  store ptr getelementptr inbounds ({ [8 x ptr], [4 x ptr] }, ptr @_ZTVN12_GLOBAL__N_168UnparseFlagToOtherIntegerTest_ReturnsExpectedValueAndRoundTrips_TestE, i32 0, i32 0, i32 2), ptr %this1, align 8
  %add.ptr = getelementptr inbounds i8, ptr %this1, i64 16
  store ptr getelementptr inbounds ({ [8 x ptr], [4 x ptr] }, ptr @_ZTVN12_GLOBAL__N_168UnparseFlagToOtherIntegerTest_ReturnsExpectedValueAndRoundTrips_TestE, i32 0, i32 1, i32 2), ptr %add.ptr, align 8
  ret void
}

; Function Attrs: mustprogress nounwind uwtable
define linkonce_odr dso_local void @_ZN7testing18WithParamInterfaceIiE8SetParamEPKi(ptr noundef %parameter) #7 comdat align 2 {
entry:
  %parameter.addr = alloca ptr, align 8
  store ptr %parameter, ptr %parameter.addr, align 8
  %0 = load ptr, ptr %parameter.addr, align 8
  store ptr %0, ptr @_ZN7testing18WithParamInterfaceIiE10parameter_E, align 8
  ret void
}

; Function Attrs: mustprogress uwtable
define internal noundef ptr @_ZN7testing8internal24ParameterizedTestFactoryIN12_GLOBAL__N_168UnparseFlagToOtherIntegerTest_ReturnsExpectedValueAndRoundTrips_TestEE10CreateTestEv(ptr noundef nonnull align 8 dereferenceable(12) %this) unnamed_addr #4 align 2 personality ptr @__gxx_personality_v0 {
entry:
  %this.addr = alloca ptr, align 8
  %exn.slot = alloca ptr, align 8
  %ehselector.slot = alloca i32, align 4
  store ptr %this, ptr %this.addr, align 8
  %this1 = load ptr, ptr %this.addr, align 8
  %parameter_ = getelementptr inbounds %"class.testing::internal::ParameterizedTestFactory.544", ptr %this1, i32 0, i32 1
  call void @_ZN7testing18WithParamInterfaceIiE8SetParamEPKi(ptr noundef %parameter_)
  %call = call noalias noundef nonnull ptr @_Znwm(i64 noundef 24) #18
  invoke void @_ZN12_GLOBAL__N_168UnparseFlagToOtherIntegerTest_ReturnsExpectedValueAndRoundTrips_TestC2Ev(ptr noundef nonnull align 8 dereferenceable(24) %call)
          to label %invoke.cont unwind label %lpad

invoke.cont:                                      ; preds = %entry
  ret ptr %call

lpad:                                             ; preds = %entry
  %0 = landingpad { ptr, i32 }
          cleanup
  %1 = extractvalue { ptr, i32 } %0, 0
  store ptr %1, ptr %exn.slot, align 8
  %2 = extractvalue { ptr, i32 } %0, 1
  store i32 %2, ptr %ehselector.slot, align 4
  call void @_ZdlPv(ptr noundef %call) #19
  br label %eh.resume

eh.resume:                                        ; preds = %lpad
  %exn = load ptr, ptr %exn.slot, align 8
  %sel = load i32, ptr %ehselector.slot, align 4
  %lpad.val = insertvalue { ptr, i32 } poison, ptr %exn, 0
  %lpad.val2 = insertvalue { ptr, i32 } %lpad.val, i32 %sel, 1
  resume { ptr, i32 } %lpad.val2
}